; Function Attrs: mustprogress null_pointer_is_valid sspstrong uwtable
define void @_ZN23LBMLBTRUTransportDialog14resetReceiversEv(ptr noundef readonly align 8 captures(none) dereferenceable_or_null(112) %0) local_unnamed_addr #0 align 2 {
  %2 = getelementptr inbounds nuw i8, ptr %0, i64 40
  br label %3

3:                                                ; preds = %3, %1
  %4 = load ptr, ptr %2, align 8
  %5 = getelementptr inbounds nuw i8, ptr %4, i64 568
  %6 = load ptr, ptr %5, align 8
  %7 = tail call noundef ptr @_ZN11QTreeWidget16takeTopLevelItemEi(ptr noundef align 8 dereferenceable_or_null(40) %6, i32 noundef 0)
  %.not = icmp eq ptr %7, null
  br i1 %.not, label %8, label %3, !llvm.loop !105

8:                                                ; preds = %3
  ret void
}